; Function Attrs: null_pointer_is_valid sspstrong uwtable
define internal i32 @dissect_mac_mgmt_msg_aas_beam_select_decoder(ptr noundef %0, ptr readnone captures(none) %1, ptr noundef %2, ptr readnone captures(none) %3) #0 {
  %5 = load i32, ptr @proto_mac_mgmt_msg_aas_beam_decoder, align 4
  %6 = tail call ptr (ptr, i32, ptr, i32, i32, ptr, ...) @proto_tree_add_protocol_format(ptr noundef %2, i32 noundef %5, ptr noundef %0, i32 noundef 0, i32 noundef -1, ptr noundef nonnull @.str.37)
  %7 = load i32, ptr @ett_mac_mgmt_msg_aas_beam_select_decoder, align 4
  %8 = tail call ptr @proto_item_add_subtree(ptr noundef %6, i32 noundef %7)
  %9 = load i32, ptr @hf_aas_beam_select_index, align 4
  %10 = tail call ptr @proto_tree_add_item(ptr noundef %8, i32 noundef %9, ptr noundef %0, i32 noundef 0, i32 noundef 1, i32 noundef 0)
  %11 = load i32, ptr @hf_aas_beam_select_reserved, align 4
  %12 = tail call ptr @proto_tree_add_item(ptr noundef %8, i32 noundef %11, ptr noundef %0, i32 noundef 0, i32 noundef 1, i32 noundef 0)
  %13 = tail call i32 @tvb_captured_length(ptr noundef %0)
  ret i32 %13
}